target datalayout = "e-m:e-p270:32:32-p271:32:32-p272:64:64-i64:64-i128:128-f80:128-n8:16:32:64-S128"
target triple = "x86_64-pc-linux-gnu"

%struct.jv_parser = type { ptr, i32, i32, i32, i32, i32, i32, ptr, i32, i32, %struct.jv, i32, %struct.jv, %struct.jv, ptr, i32, i32, i32, i32, %struct.dtoa_context, i32, i8 }
%struct.jv = type { i8, i8, i16, i32, %union.anon }
%union.anon = type { ptr }
%struct.dtoa_context = type { [8 x ptr], ptr }

; Function Attrs: nounwind uwtable
define internal i32 @jv_is_valid(i64 %0, ptr %1) #0 {
  %3 = alloca %struct.jv, align 8
  %4 = getelementptr inbounds nuw { i64, ptr }, ptr %3, i32 0, i32 0
  store i64 %0, ptr %4, align 8
  %5 = getelementptr inbounds nuw { i64, ptr }, ptr %3, i32 0, i32 1
  store ptr %1, ptr %5, align 8
  %6 = getelementptr inbounds nuw { i64, ptr }, ptr %3, i32 0, i32 0
  %7 = load i64, ptr %6, align 8
  %8 = getelementptr inbounds nuw { i64, ptr }, ptr %3, i32 0, i32 1
  %9 = load ptr, ptr %8, align 8
  %10 = call i32 @jv_get_kind(i64 %7, ptr %9)
  %11 = icmp ne i32 %10, 0
  %12 = zext i1 %11 to i32
  ret i32 %12
}

; Function Attrs: nounwind uwtable
define internal i32 @stream_check_done(ptr noundef %0, ptr noundef %1) #0 {
  %3 = alloca i32, align 4
  %4 = alloca ptr, align 8
  %5 = alloca ptr, align 8
  %6 = alloca %struct.jv, align 8
  %7 = alloca %struct.jv, align 8
  %8 = alloca %struct.jv, align 8
  %9 = alloca %struct.jv, align 8
  %10 = alloca %struct.jv, align 8
  %11 = alloca %struct.jv, align 8
  %12 = alloca %struct.jv, align 8
  %13 = alloca %struct.jv, align 8
  %14 = alloca %struct.jv, align 8
  %15 = alloca %struct.jv, align 8
  store ptr %0, ptr %4, align 8, !tbaa !8
  store ptr %1, ptr %5, align 8, !tbaa !42
  %16 = load ptr, ptr %4, align 8, !tbaa !8
  %17 = getelementptr inbounds nuw %struct.jv_parser, ptr %16, i32 0, i32 9
  %18 = load i32, ptr %17, align 4, !tbaa !23
  %19 = icmp eq i32 %18, 0
  br i1 %19, label %20, label %82

20:                                               ; preds = %2
  %21 = load ptr, ptr %4, align 8, !tbaa !8
  %22 = getelementptr inbounds nuw %struct.jv_parser, ptr %21, i32 0, i32 13
  %23 = getelementptr inbounds nuw { i64, ptr }, ptr %22, i32 0, i32 0
  %24 = load i64, ptr %23, align 8
  %25 = getelementptr inbounds nuw { i64, ptr }, ptr %22, i32 0, i32 1
  %26 = load ptr, ptr %25, align 8
  %27 = call i32 @jv_is_valid(i64 %24, ptr %26)
  %28 = icmp ne i32 %27, 0
  br i1 %28, label %29, label %82

29:                                               ; preds = %20
  %30 = load ptr, ptr %5, align 8, !tbaa !42
  call void @llvm.lifetime.start.p0(i64 16, ptr %6) #6
  %31 = call { i64, ptr } @jv_array()
  %32 = getelementptr inbounds nuw { i64, ptr }, ptr %8, i32 0, i32 0
  %33 = extractvalue { i64, ptr } %31, 0
  store i64 %33, ptr %32, align 8
  %34 = getelementptr inbounds nuw { i64, ptr }, ptr %8, i32 0, i32 1
  %35 = extractvalue { i64, ptr } %31, 1
  store ptr %35, ptr %34, align 8
  %36 = load ptr, ptr %4, align 8, !tbaa !8
  %37 = getelementptr inbounds nuw %struct.jv_parser, ptr %36, i32 0, i32 10
  %38 = getelementptr inbounds nuw { i64, ptr }, ptr %37, i32 0, i32 0
  %39 = load i64, ptr %38, align 8
  %40 = getelementptr inbounds nuw { i64, ptr }, ptr %37, i32 0, i32 1
  %41 = load ptr, ptr %40, align 8
  %42 = call { i64, ptr } @jv_copy(i64 %39, ptr %41)
  %43 = getelementptr inbounds nuw { i64, ptr }, ptr %9, i32 0, i32 0
  %44 = extractvalue { i64, ptr } %42, 0
  store i64 %44, ptr %43, align 8
  %45 = getelementptr inbounds nuw { i64, ptr }, ptr %9, i32 0, i32 1
  %46 = extractvalue { i64, ptr } %42, 1
  store ptr %46, ptr %45, align 8
  %47 = getelementptr inbounds nuw { i64, ptr }, ptr %8, i32 0, i32 0
  %48 = load i64, ptr %47, align 8
  %49 = getelementptr inbounds nuw { i64, ptr }, ptr %8, i32 0, i32 1
  %50 = load ptr, ptr %49, align 8
  %51 = getelementptr inbounds nuw { i64, ptr }, ptr %9, i32 0, i32 0
  %52 = load i64, ptr %51, align 8
  %53 = getelementptr inbounds nuw { i64, ptr }, ptr %9, i32 0, i32 1
  %54 = load ptr, ptr %53, align 8
  %55 = call { i64, ptr } @jv_array_append(i64 %48, ptr %50, i64 %52, ptr %54)
  %56 = getelementptr inbounds nuw { i64, ptr }, ptr %7, i32 0, i32 0
  %57 = extractvalue { i64, ptr } %55, 0
  store i64 %57, ptr %56, align 8
  %58 = getelementptr inbounds nuw { i64, ptr }, ptr %7, i32 0, i32 1
  %59 = extractvalue { i64, ptr } %55, 1
  store ptr %59, ptr %58, align 8
  %60 = load ptr, ptr %4, align 8, !tbaa !8
  %61 = getelementptr inbounds nuw %struct.jv_parser, ptr %60, i32 0, i32 13
  %62 = getelementptr inbounds nuw { i64, ptr }, ptr %7, i32 0, i32 0
  %63 = load i64, ptr %62, align 8
  %64 = getelementptr inbounds nuw { i64, ptr }, ptr %7, i32 0, i32 1
  %65 = load ptr, ptr %64, align 8
  %66 = getelementptr inbounds nuw { i64, ptr }, ptr %61, i32 0, i32 0
  %67 = load i64, ptr %66, align 8
  %68 = getelementptr inbounds nuw { i64, ptr }, ptr %61, i32 0, i32 1
  %69 = load ptr, ptr %68, align 8
  %70 = call { i64, ptr } @jv_array_append(i64 %63, ptr %65, i64 %67, ptr %69)
  %71 = getelementptr inbounds nuw { i64, ptr }, ptr %6, i32 0, i32 0
  %72 = extractvalue { i64, ptr } %70, 0
  store i64 %72, ptr %71, align 8
  %73 = getelementptr inbounds nuw { i64, ptr }, ptr %6, i32 0, i32 1
  %74 = extractvalue { i64, ptr } %70, 1
  store ptr %74, ptr %73, align 8
  call void @llvm.memcpy.p0.p0.i64(ptr align 8 %30, ptr align 8 %6, i64 16, i1 false), !tbaa.struct !18
  call void @llvm.lifetime.end.p0(i64 16, ptr %6) #6
  %75 = load ptr, ptr %4, align 8, !tbaa !8
  %76 = getelementptr inbounds nuw %struct.jv_parser, ptr %75, i32 0, i32 13
  call void @llvm.lifetime.start.p0(i64 16, ptr %10) #6
  %77 = call { i64, ptr } @jv_invalid()
  %78 = getelementptr inbounds nuw { i64, ptr }, ptr %10, i32 0, i32 0
  %79 = extractvalue { i64, ptr } %77, 0
  store i64 %79, ptr %78, align 8
  %80 = getelementptr inbounds nuw { i64, ptr }, ptr %10, i32 0, i32 1
  %81 = extractvalue { i64, ptr } %77, 1
  store ptr %81, ptr %80, align 8
  call void @llvm.memcpy.p0.p0.i64(ptr align 8 %76, ptr align 8 %10, i64 16, i1 false), !tbaa.struct !18
  call void @llvm.lifetime.end.p0(i64 16, ptr %10) #6
  store i32 1, ptr %3, align 4
  br label %157

82:                                               ; preds = %20, %2
  %83 = load ptr, ptr %4, align 8, !tbaa !8
  %84 = getelementptr inbounds nuw %struct.jv_parser, ptr %83, i32 0, i32 12
  %85 = getelementptr inbounds nuw { i64, ptr }, ptr %84, i32 0, i32 0
  %86 = load i64, ptr %85, align 8
  %87 = getelementptr inbounds nuw { i64, ptr }, ptr %84, i32 0, i32 1
  %88 = load ptr, ptr %87, align 8
  %89 = call i32 @jv_is_valid(i64 %86, ptr %88)
  %90 = icmp ne i32 %89, 0
  br i1 %90, label %91, label %156

91:                                               ; preds = %82
  %92 = load ptr, ptr %4, align 8, !tbaa !8
  %93 = getelementptr inbounds nuw %struct.jv_parser, ptr %92, i32 0, i32 12
  %94 = getelementptr inbounds nuw { i64, ptr }, ptr %93, i32 0, i32 0
  %95 = load i64, ptr %94, align 8
  %96 = getelementptr inbounds nuw { i64, ptr }, ptr %93, i32 0, i32 1
  %97 = load ptr, ptr %96, align 8
  %98 = call { i64, ptr } @jv_copy(i64 %95, ptr %97)
  %99 = getelementptr inbounds nuw { i64, ptr }, ptr %11, i32 0, i32 0
  %100 = extractvalue { i64, ptr } %98, 0
  store i64 %100, ptr %99, align 8
  %101 = getelementptr inbounds nuw { i64, ptr }, ptr %11, i32 0, i32 1
  %102 = extractvalue { i64, ptr } %98, 1
  store ptr %102, ptr %101, align 8
  %103 = getelementptr inbounds nuw { i64, ptr }, ptr %11, i32 0, i32 0
  %104 = load i64, ptr %103, align 8
  %105 = getelementptr inbounds nuw { i64, ptr }, ptr %11, i32 0, i32 1
  %106 = load ptr, ptr %105, align 8
  %107 = call i32 @jv_array_length(i64 %104, ptr %106)
  %108 = icmp sgt i32 %107, 2
  br i1 %108, label %109, label %144

109:                                              ; preds = %91
  %110 = load ptr, ptr %5, align 8, !tbaa !42
  call void @llvm.lifetime.start.p0(i64 16, ptr %12) #6
  %111 = load ptr, ptr %4, align 8, !tbaa !8
  %112 = getelementptr inbounds nuw %struct.jv_parser, ptr %111, i32 0, i32 12
  %113 = getelementptr inbounds nuw { i64, ptr }, ptr %112, i32 0, i32 0
  %114 = load i64, ptr %113, align 8
  %115 = getelementptr inbounds nuw { i64, ptr }, ptr %112, i32 0, i32 1
  %116 = load ptr, ptr %115, align 8
  %117 = call { i64, ptr } @jv_copy(i64 %114, ptr %116)
  %118 = getelementptr inbounds nuw { i64, ptr }, ptr %13, i32 0, i32 0
  %119 = extractvalue { i64, ptr } %117, 0
  store i64 %119, ptr %118, align 8
  %120 = getelementptr inbounds nuw { i64, ptr }, ptr %13, i32 0, i32 1
  %121 = extractvalue { i64, ptr } %117, 1
  store ptr %121, ptr %120, align 8
  %122 = getelementptr inbounds nuw { i64, ptr }, ptr %13, i32 0, i32 0
  %123 = load i64, ptr %122, align 8
  %124 = getelementptr inbounds nuw { i64, ptr }, ptr %13, i32 0, i32 1
  %125 = load ptr, ptr %124, align 8
  %126 = call { i64, ptr } @jv_array_slice(i64 %123, ptr %125, i32 noundef 0, i32 noundef 2)
  %127 = getelementptr inbounds nuw { i64, ptr }, ptr %12, i32 0, i32 0
  %128 = extractvalue { i64, ptr } %126, 0
  store i64 %128, ptr %127, align 8
  %129 = getelementptr inbounds nuw { i64, ptr }, ptr %12, i32 0, i32 1
  %130 = extractvalue { i64, ptr } %126, 1
  store ptr %130, ptr %129, align 8
  call void @llvm.memcpy.p0.p0.i64(ptr align 8 %110, ptr align 8 %12, i64 16, i1 false), !tbaa.struct !18
  call void @llvm.lifetime.end.p0(i64 16, ptr %12) #6
  %131 = load ptr, ptr %4, align 8, !tbaa !8
  %132 = getelementptr inbounds nuw %struct.jv_parser, ptr %131, i32 0, i32 12
  call void @llvm.lifetime.start.p0(i64 16, ptr %14) #6
  %133 = load ptr, ptr %4, align 8, !tbaa !8
  %134 = getelementptr inbounds nuw %struct.jv_parser, ptr %133, i32 0, i32 12
  %135 = getelementptr inbounds nuw { i64, ptr }, ptr %134, i32 0, i32 0
  %136 = load i64, ptr %135, align 8
  %137 = getelementptr inbounds nuw { i64, ptr }, ptr %134, i32 0, i32 1
  %138 = load ptr, ptr %137, align 8
  %139 = call { i64, ptr } @jv_array_slice(i64 %136, ptr %138, i32 noundef 0, i32 noundef 1)
  %140 = getelementptr inbounds nuw { i64, ptr }, ptr %14, i32 0, i32 0
  %141 = extractvalue { i64, ptr } %139, 0
  store i64 %141, ptr %140, align 8
  %142 = getelementptr inbounds nuw { i64, ptr }, ptr %14, i32 0, i32 1
  %143 = extractvalue { i64, ptr } %139, 1
  store ptr %143, ptr %142, align 8
  call void @llvm.memcpy.p0.p0.i64(ptr align 8 %132, ptr align 8 %14, i64 16, i1 false), !tbaa.struct !18
  call void @llvm.lifetime.end.p0(i64 16, ptr %14) #6
  br label %155

144:                                              ; preds = %91
  %145 = load ptr, ptr %5, align 8, !tbaa !42
  %146 = load ptr, ptr %4, align 8, !tbaa !8
  %147 = getelementptr inbounds nuw %struct.jv_parser, ptr %146, i32 0, i32 12
  call void @llvm.memcpy.p0.p0.i64(ptr align 8 %145, ptr align 8 %147, i64 16, i1 false), !tbaa.struct !18
  %148 = load ptr, ptr %4, align 8, !tbaa !8
  %149 = getelementptr inbounds nuw %struct.jv_parser, ptr %148, i32 0, i32 12
  call void @llvm.lifetime.start.p0(i64 16, ptr %15) #6
  %150 = call { i64, ptr } @jv_invalid()
  %151 = getelementptr inbounds nuw { i64, ptr }, ptr %15, i32 0, i32 0
  %152 = extractvalue { i64, ptr } %150, 0
  store i64 %152, ptr %151, align 8
  %153 = getelementptr inbounds nuw { i64, ptr }, ptr %15, i32 0, i32 1
  %154 = extractvalue { i64, ptr } %150, 1
  store ptr %154, ptr %153, align 8
  call void @llvm.memcpy.p0.p0.i64(ptr align 8 %149, ptr align 8 %15, i64 16, i1 false), !tbaa.struct !18
  call void @llvm.lifetime.end.p0(i64 16, ptr %15) #6
  br label %155

155:                                              ; preds = %144, %109
  store i32 1, ptr %3, align 4
  br label %157

156:                                              ; preds = %82
  store i32 0, ptr %3, align 4
  br label %157

157:                                              ; preds = %156, %155, %29
  %158 = load i32, ptr %3, align 4
  ret i32 %158
}