; Function Attrs: nounwind uwtable
define internal fastcc range(i32 0, 2) i32 @stream_check_done(ptr noundef captures(none) %0, ptr noundef nonnull writeonly captures(none) %1) unnamed_addr #0 {
  %3 = getelementptr inbounds nuw i8, ptr %0, i64 44
  %4 = load i32, ptr %3, align 4, !tbaa !31
  %5 = icmp eq i32 %4, 0
  br i1 %5, label %6, label %34

6:                                                ; preds = %2
  %7 = getelementptr inbounds nuw i8, ptr %0, i64 88
  %8 = load i64, ptr %7, align 8
  %9 = getelementptr inbounds nuw i8, ptr %0, i64 96
  %10 = load ptr, ptr %9, align 8
  %11 = tail call i32 @jv_get_kind(i64 %8, ptr %10) #9
  %.not35 = icmp eq i32 %11, 0
  br i1 %.not35, label %34, label %12

12:                                               ; preds = %6
  %13 = tail call { i64, ptr } @jv_array() #9
  %14 = extractvalue { i64, ptr } %13, 0
  %15 = extractvalue { i64, ptr } %13, 1
  %16 = getelementptr inbounds nuw i8, ptr %0, i64 48
  %17 = load i64, ptr %16, align 8
  %18 = getelementptr inbounds nuw i8, ptr %0, i64 56
  %19 = load ptr, ptr %18, align 8
  %20 = tail call { i64, ptr } @jv_copy(i64 %17, ptr %19) #9
  %21 = extractvalue { i64, ptr } %20, 0
  %22 = extractvalue { i64, ptr } %20, 1
  %23 = tail call { i64, ptr } @jv_array_append(i64 %14, ptr %15, i64 %21, ptr %22) #9
  %24 = extractvalue { i64, ptr } %23, 0
  %25 = extractvalue { i64, ptr } %23, 1
  %26 = load i64, ptr %7, align 8
  %27 = load ptr, ptr %9, align 8
  %28 = tail call { i64, ptr } @jv_array_append(i64 %24, ptr %25, i64 %26, ptr %27) #9
  %29 = extractvalue { i64, ptr } %28, 0
  %30 = extractvalue { i64, ptr } %28, 1
  store i64 %29, ptr %1, align 8
  %.sroa.417.0..sroa_idx = getelementptr inbounds nuw i8, ptr %1, i64 8
  store ptr %30, ptr %.sroa.417.0..sroa_idx, align 8, !tbaa !15
  %31 = tail call { i64, ptr } @jv_invalid() #9
  %32 = extractvalue { i64, ptr } %31, 0
  %33 = extractvalue { i64, ptr } %31, 1
  store i64 %32, ptr %7, align 8
  store ptr %33, ptr %9, align 8, !tbaa !15
  br label %63

34:                                               ; preds = %6, %2
  %35 = getelementptr inbounds nuw i8, ptr %0, i64 72
  %36 = load i64, ptr %35, align 8
  %37 = getelementptr inbounds nuw i8, ptr %0, i64 80
  %38 = load ptr, ptr %37, align 8
  %39 = tail call i32 @jv_get_kind(i64 %36, ptr %38) #9
  %.not = icmp eq i32 %39, 0
  br i1 %.not, label %63, label %40

40:                                               ; preds = %34
  %41 = load i64, ptr %35, align 8
  %42 = load ptr, ptr %37, align 8
  %43 = tail call { i64, ptr } @jv_copy(i64 %41, ptr %42) #9
  %44 = extractvalue { i64, ptr } %43, 0
  %45 = extractvalue { i64, ptr } %43, 1
  %46 = tail call i32 @jv_array_length(i64 %44, ptr %45) #9
  %47 = icmp sgt i32 %46, 2
  br i1 %47, label %48, label %60

48:                                               ; preds = %40
  %49 = load i64, ptr %35, align 8
  %50 = load ptr, ptr %37, align 8
  %51 = tail call { i64, ptr } @jv_copy(i64 %49, ptr %50) #9
  %52 = extractvalue { i64, ptr } %51, 0
  %53 = extractvalue { i64, ptr } %51, 1
  %54 = tail call { i64, ptr } @jv_array_slice(i64 %52, ptr %53, i32 noundef 0, i32 noundef 2) #9
  %55 = extractvalue { i64, ptr } %54, 0
  %56 = extractvalue { i64, ptr } %54, 1
  store i64 %55, ptr %1, align 8
  %.sroa.45.0..sroa_idx = getelementptr inbounds nuw i8, ptr %1, i64 8
  store ptr %56, ptr %.sroa.45.0..sroa_idx, align 8, !tbaa !15
  %57 = load i64, ptr %35, align 8
  %58 = load ptr, ptr %37, align 8
  %59 = tail call { i64, ptr } @jv_array_slice(i64 %57, ptr %58, i32 noundef 0, i32 noundef 1) #9
  br label %62

60:                                               ; preds = %40
  tail call void @llvm.memcpy.p0.p0.i64(ptr noundef nonnull align 8 dereferenceable(16) %1, ptr noundef nonnull align 8 dereferenceable(16) %35, i64 16, i1 false), !tbaa.struct !34
  %61 = tail call { i64, ptr } @jv_invalid() #9
  br label %62

62:                                               ; preds = %60, %48
  %.pn = phi { i64, ptr } [ %61, %60 ], [ %59, %48 ]
  %storemerge33 = extractvalue { i64, ptr } %.pn, 0
  store i64 %storemerge33, ptr %35, align 8
  %storemerge = extractvalue { i64, ptr } %.pn, 1
  store ptr %storemerge, ptr %37, align 8, !tbaa !15
  br label %63

63:                                               ; preds = %34, %62, %12
  %.0 = phi i32 [ 1, %12 ], [ 1, %62 ], [ 0, %34 ]
  ret i32 %.0
}